target datalayout = "e-m:e-p270:32:32-p271:32:32-p272:64:64-i64:64-i128:128-f80:128-n8:16:32:64-S128"
target triple = "x86_64-pc-linux-gnu"

%"class.Ipopt::StdInterfaceTNLP" = type { %"class.Ipopt::TNLP.base", %"class.Ipopt::SmartPtr", i32, i32, ptr, ptr, ptr, ptr, i32, i32, i32, ptr, ptr, ptr, ptr, ptr, ptr, ptr, ptr, ptr, ptr, ptr, double, ptr, ptr, ptr, ptr, ptr, ptr, ptr, ptr, ptr, ptr, ptr }
%"class.Ipopt::TNLP.base" = type { %"class.Ipopt::ReferencedObject.base" }
%"class.Ipopt::ReferencedObject.base" = type <{ ptr, i32 }>
%"class.Ipopt::SmartPtr" = type { ptr }

; Function Attrs: mustprogress uwtable
define noundef zeroext i1 @_ZN5Ipopt16StdInterfaceTNLP21intermediate_callbackENS_13AlgorithmModeEiddddddddiPKNS_9IpoptDataEPNS_25IpoptCalculatedQuantitiesE(ptr noundef nonnull align 8 dereferenceable(264) %0, i32 noundef %1, i32 noundef %2, double noundef %3, double noundef %4, double noundef %5, double noundef %6, double noundef %7, double noundef %8, double noundef %9, double noundef %10, i32 noundef %11, ptr noundef %12, ptr noundef %13) unnamed_addr #0 align 2 {
  %15 = alloca i1, align 1
  %16 = alloca ptr, align 8
  %17 = alloca i32, align 4
  %18 = alloca i32, align 4
  %19 = alloca double, align 8
  %20 = alloca double, align 8
  %21 = alloca double, align 8
  %22 = alloca double, align 8
  %23 = alloca double, align 8
  %24 = alloca double, align 8
  %25 = alloca double, align 8
  %26 = alloca double, align 8
  %27 = alloca i32, align 4
  %28 = alloca ptr, align 8
  %29 = alloca ptr, align 8
  %30 = alloca i8, align 1
  store ptr %0, ptr %16, align 8
  store i32 %1, ptr %17, align 4
  store i32 %2, ptr %18, align 4
  store double %3, ptr %19, align 8
  store double %4, ptr %20, align 8
  store double %5, ptr %21, align 8
  store double %6, ptr %22, align 8
  store double %7, ptr %23, align 8
  store double %8, ptr %24, align 8
  store double %9, ptr %25, align 8
  store double %10, ptr %26, align 8
  store i32 %11, ptr %27, align 4
  store ptr %12, ptr %28, align 8
  store ptr %13, ptr %29, align 8
  %31 = load ptr, ptr %16, align 8
  %32 = getelementptr inbounds %"class.Ipopt::StdInterfaceTNLP", ptr %31, i32 0, i32 20
  %33 = load ptr, ptr %32, align 8
  %34 = icmp ne ptr %33, null
  br i1 %34, label %36, label %35

35:                                               ; preds = %14
  store i1 true, ptr %15, align 1
  br label %64

36:                                               ; preds = %14
  %37 = load ptr, ptr %28, align 8
  %38 = getelementptr inbounds %"class.Ipopt::StdInterfaceTNLP", ptr %31, i32 0, i32 32
  store ptr %37, ptr %38, align 8
  %39 = load ptr, ptr %29, align 8
  %40 = getelementptr inbounds %"class.Ipopt::StdInterfaceTNLP", ptr %31, i32 0, i32 33
  store ptr %39, ptr %40, align 8
  %41 = getelementptr inbounds %"class.Ipopt::StdInterfaceTNLP", ptr %31, i32 0, i32 20
  %42 = load ptr, ptr %41, align 8
  %43 = load i32, ptr %17, align 4
  %44 = load i32, ptr %18, align 4
  %45 = load double, ptr %19, align 8
  %46 = load double, ptr %20, align 8
  %47 = load double, ptr %21, align 8
  %48 = load double, ptr %22, align 8
  %49 = load double, ptr %23, align 8
  %50 = load double, ptr %24, align 8
  %51 = load double, ptr %25, align 8
  %52 = load double, ptr %26, align 8
  %53 = load i32, ptr %27, align 4
  %54 = getelementptr inbounds %"class.Ipopt::StdInterfaceTNLP", ptr %31, i32 0, i32 21
  %55 = load ptr, ptr %54, align 8
  %56 = call noundef zeroext i1 %42(i32 noundef %43, i32 noundef %44, double noundef %45, double noundef %46, double noundef %47, double noundef %48, double noundef %49, double noundef %50, double noundef %51, double noundef %52, i32 noundef %53, ptr noundef %55)
  %57 = zext i1 %56 to i8
  store i8 %57, ptr %30, align 1
  %58 = getelementptr inbounds %"class.Ipopt::StdInterfaceTNLP", ptr %31, i32 0, i32 32
  store ptr null, ptr %58, align 8
  %59 = getelementptr inbounds %"class.Ipopt::StdInterfaceTNLP", ptr %31, i32 0, i32 33
  store ptr null, ptr %59, align 8
  %60 = load i8, ptr %30, align 1
  %61 = trunc i8 %60 to i1
  %62 = zext i1 %61 to i32
  %63 = icmp ne i32 %62, 0
  store i1 %63, ptr %15, align 1
  br label %64

64:                                               ; preds = %36, %35
  %65 = load i1, ptr %15, align 1
  ret i1 %65
}