; Function Attrs: mustprogress uwtable
define noundef zeroext i1 @_ZN5Ipopt16StdInterfaceTNLP21intermediate_callbackENS_13AlgorithmModeEiddddddddiPKNS_9IpoptDataEPNS_25IpoptCalculatedQuantitiesE(ptr nocapture noundef nonnull align 8 dereferenceable(264) %0, i32 noundef %1, i32 noundef %2, double noundef %3, double noundef %4, double noundef %5, double noundef %6, double noundef %7, double noundef %8, double noundef %9, double noundef %10, i32 noundef %11, ptr noundef %12, ptr noundef %13) unnamed_addr #0 align 2 {
  %15 = getelementptr inbounds i8, ptr %0, i64 152
  %16 = load ptr, ptr %15, align 8
  %.not = icmp eq ptr %16, null
  br i1 %.not, label %23, label %17

17:                                               ; preds = %14
  %18 = getelementptr inbounds i8, ptr %0, i64 248
  store ptr %12, ptr %18, align 8
  %19 = getelementptr inbounds i8, ptr %0, i64 256
  store ptr %13, ptr %19, align 8
  %20 = getelementptr inbounds i8, ptr %0, i64 160
  %21 = load ptr, ptr %20, align 8
  %22 = tail call noundef zeroext i1 %16(i32 noundef %1, i32 noundef %2, double noundef %3, double noundef %4, double noundef %5, double noundef %6, double noundef %7, double noundef %8, double noundef %9, double noundef %10, i32 noundef %11, ptr noundef %21)
  tail call void @llvm.memset.p0.i64(ptr noundef nonnull align 8 dereferenceable(16) %18, i8 0, i64 16, i1 false)
  br label %23

23:                                               ; preds = %14, %17
  %.0 = phi i1 [ %22, %17 ], [ true, %14 ]
  ret i1 %.0
}